; ModuleID = '16/1031.c'
source_filename = "16/1031.c"
target datalayout = "e-m:e-p270:32:32-p271:32:32-p272:64:64-i64:64-f80:128-n8:16:32:64-S128"
target triple = "x86_64-pc-linux-gnu"

@.str = private unnamed_addr constant [2 x i8] c"0\00", align 1
@.str.1 = private unnamed_addr constant [3 x i8] c"%d\00", align 1

; Function Attrs: noinline nounwind uwtable
define dso_local i32 @MyInverseitoa(i32 %0, i8* %1, i32 %2) #0 {
  %4 = alloca i32, align 4
  %5 = alloca i8*, align 8
  %6 = alloca i32, align 4
  %7 = alloca i32, align 4
  store i32 %0, i32* %4, align 4
  store i8* %1, i8** %5, align 8
  store i32 %2, i32* %6, align 4
  store i32 0, i32* %7, align 4
  br label %8

8:                                                ; preds = %21, %3
  %9 = load i32, i32* %4, align 4
  %10 = load i32, i32* %6, align 4
  %11 = srem i32 %9, %10
  %12 = trunc i32 %11 to i8
  %13 = load i8*, i8** %5, align 8
  %14 = load i32, i32* %7, align 4
  %15 = add nsw i32 %14, 1
  store i32 %15, i32* %7, align 4
  %16 = sext i32 %14 to i64
  %17 = getelementptr inbounds i8, i8* %13, i64 %16
  store i8 %12, i8* %17, align 1
  %18 = load i32, i32* %6, align 4
  %19 = load i32, i32* %4, align 4
  %20 = sdiv i32 %19, %18
  store i32 %20, i32* %4, align 4
  br label %21

21:                                               ; preds = %8
  %22 = load i32, i32* %4, align 4
  %23 = icmp ne i32 %22, 0
  br i1 %23, label %8, label %24

24:                                               ; preds = %21
  %25 = load i8*, i8** %5, align 8
  %26 = load i32, i32* %7, align 4
  %27 = sext i32 %26 to i64
  %28 = getelementptr inbounds i8, i8* %25, i64 %27
  store i8 0, i8* %28, align 1
  %29 = load i32, i32* %7, align 4
  %30 = sub nsw i32 %29, 1
  ret i32 %30
}

; Function Attrs: noinline nounwind uwtable
define dso_local i32 @Myatoi(i8* %0, i32 %1) #0 {
  %3 = alloca i8*, align 8
  %4 = alloca i32, align 4
  %5 = alloca i32, align 4
  %6 = alloca i32, align 4
  store i8* %0, i8** %3, align 8
  store i32 %1, i32* %4, align 4
  store i32 0, i32* %5, align 4
  store i32 0, i32* %6, align 4
  br label %7

7:                                                ; preds = %15, %2
  %8 = load i8*, i8** %3, align 8
  %9 = load i32, i32* %6, align 4
  %10 = sext i32 %9 to i64
  %11 = getelementptr inbounds i8, i8* %8, i64 %10
  %12 = load i8, i8* %11, align 1
  %13 = sext i8 %12 to i32
  %14 = icmp eq i32 %13, 0
  br i1 %14, label %15, label %19

15:                                               ; preds = %7
  %16 = load i32, i32* %6, align 4
  %17 = add nsw i32 %16, 1
  store i32 %17, i32* %6, align 4
  %18 = call i32 (i8*, ...) @printf(i8* getelementptr inbounds ([2 x i8], [2 x i8]* @.str, i64 0, i64 0))
  br label %7

19:                                               ; preds = %7
  store i32 0, i32* %6, align 4
  br label %20

20:                                               ; preds = %34, %19
  %21 = load i32, i32* %6, align 4
  %22 = load i32, i32* %4, align 4
  %23 = icmp sle i32 %21, %22
  br i1 %23, label %24, label %37

24:                                               ; preds = %20
  %25 = load i32, i32* %5, align 4
  %26 = mul nsw i32 10, %25
  %27 = load i8*, i8** %3, align 8
  %28 = load i32, i32* %6, align 4
  %29 = sext i32 %28 to i64
  %30 = getelementptr inbounds i8, i8* %27, i64 %29
  %31 = load i8, i8* %30, align 1
  %32 = sext i8 %31 to i32
  %33 = add nsw i32 %26, %32
  store i32 %33, i32* %5, align 4
  br label %34

34:                                               ; preds = %24
  %35 = load i32, i32* %6, align 4
  %36 = add nsw i32 %35, 1
  store i32 %36, i32* %6, align 4
  br label %20

37:                                               ; preds = %20
  %38 = load i32, i32* %5, align 4
  ret i32 %38
}

declare dso_local i32 @printf(i8*, ...) #1

; Function Attrs: noinline nounwind uwtable
define dso_local i32 @main() #0 {
  %1 = alloca i32, align 4
  %2 = alloca i32, align 4
  %3 = alloca i32, align 4
  %4 = alloca i32, align 4
  %5 = alloca [12 x i8], align 1
  store i32 0, i32* %1, align 4
  store i32 0, i32* %4, align 4
  %6 = call i32 (i8*, ...) @__isoc99_scanf(i8* getelementptr inbounds ([3 x i8], [3 x i8]* @.str.1, i64 0, i64 0), i32* %2)
  %7 = load i32, i32* %2, align 4
  %8 = icmp eq i32 %7, 0
  br i1 %8, label %9, label %13

9:                                                ; preds = %0
  %10 = load i32, i32* %2, align 4
  store i32 %10, i32* %3, align 4
  %11 = load i32, i32* %3, align 4
  %12 = call i32 (i8*, ...) @printf(i8* getelementptr inbounds ([3 x i8], [3 x i8]* @.str.1, i64 0, i64 0), i32 %11)
  br label %22

13:                                               ; preds = %0
  %14 = load i32, i32* %2, align 4
  %15 = getelementptr inbounds [12 x i8], [12 x i8]* %5, i64 0, i64 0
  %16 = call i32 @MyInverseitoa(i32 %14, i8* %15, i32 10)
  store i32 %16, i32* %4, align 4
  %17 = getelementptr inbounds [12 x i8], [12 x i8]* %5, i64 0, i64 0
  %18 = load i32, i32* %4, align 4
  %19 = call i32 @Myatoi(i8* %17, i32 %18)
  store i32 %19, i32* %3, align 4
  %20 = load i32, i32* %3, align 4
  %21 = call i32 (i8*, ...) @printf(i8* getelementptr inbounds ([3 x i8], [3 x i8]* @.str.1, i64 0, i64 0), i32 %20)
  br label %22

22:                                               ; preds = %13, %9
  ret i32 0
}

declare dso_local i32 @__isoc99_scanf(i8*, ...) #1


!llvm.module.flags = !{!0}
!llvm.ident = !{!1}

!0 = !{i32 1, !"wchar_size", i32 4}
!1 = !{!"clang version 10.0.0-4ubuntu1 "}
